target datalayout = "e-m:e-p270:32:32-p271:32:32-p272:64:64-i64:64-i128:128-f80:128-n8:16:32:64-S128"
target triple = "x86_64-pc-linux-gnu"

%struct.redisServer = type { i32, i64, ptr, ptr, ptr, i32, i32, i32, i32, i32, ptr, ptr, ptr, ptr, ptr, i32, i32, i32, i32, i64, i32, i32, i32, i32, ptr, i32, i32, [41 x i8], i32, i64, i32, i32, i32, ptr, ptr, i32, i32, i64, ptr, ptr, ptr, ptr, [2 x i32], i32, i32, i32, i32, i32, i32, [16 x ptr], i32, ptr, ptr, i32, [8 x %struct.connListener], i32, %struct.connListener, ptr, ptr, ptr, ptr, ptr, ptr, ptr, ptr, ptr, ptr, i32, ptr, i32, ptr, [3 x %struct.pause_event], [256 x i8], ptr, i64, i32, i32, [128 x i32], i32, i32, i64, i32, i32, i32, i32, i32, i64, i64, i64, i64, i64, i64, i64, i64, i64, i64, double, i64, i64, i64, i64, i64, i64, i64, i64, i64, i64, i64, i64, i64, i64, i64, i64, i64, i64, i64, i64, i64, double, i64, i64, i64, i64, i64, ptr, i64, i64, i64, %struct.malloc_stats, i64, i64, i64, i64, i64, i64, i64, i64, i64, i64, i64, i64, double, [4 x i64], i64, i64, i64, i64, [128 x i64], [128 x i64], i64, i64, [7 x %struct.anon], i64, i64, i64, i64, i64, i64, [4 x %struct.durationStats], i32, i32, i32, i32, i32, i32, i32, i32, i32, i32, i32, i32, i64, i32, i32, i32, i32, i64, i64, i32, i32, i32, i32, i32, ptr, [3 x %struct.clientBufferLimitsConfig], i32, i32, i32, ptr, i32, i32, i32, i32, i32, i32, ptr, ptr, i32, i32, i64, i64, i64, i64, i64, i32, i32, ptr, i32, i32, i64, i64, i64, i64, i64, i32, i32, i64, i32, i32, i32, i32, i32, i32, i32, i32, ptr, i32, i64, i64, i64, i64, i32, ptr, i32, ptr, i32, i32, i32, i64, i64, i64, i64, i32, i32, i32, i32, i32, i32, ptr, i32, i32, ptr, i32, i32, i32, [2 x i32], i32, %struct.redisOpArray, i32, ptr, i32, ptr, i32, i32, i32, i32, i32, i32, i32, [41 x i8], [41 x i8], i64, i64, i64, i64, i32, i32, ptr, i64, i64, %struct.replDataBuf, i64, i64, i32, i32, i32, i32, i32, i32, i32, i32, i32, i64, ptr, i64, ptr, ptr, ptr, i32, i32, ptr, ptr, i32, i32, i32, i64, i64, i64, i64, ptr, ptr, i32, ptr, i64, i32, i32, i32, i64, i32, i32, i32, i32, ptr, i32, i32, [41 x i8], i64, i32, ptr, i32, i32, i64, i64, i32, i32, i32, i32, i32, i64, [3 x i32], i32, i32, i32, [10 x i32], ptr, ptr, i32, i64, ptr, ptr, i32, i32, i32, i32, i64, i64, i64, i64, i64, i64, i64, i64, i64, i64, i32, i32, i64, i64, i32, i64, i64, i64, i64, i64, ptr, ptr, i32, ptr, i32, i32, i32, i32, i64, i64, ptr, ptr, i32, i32, i32, i32, i32, ptr, ptr, ptr, i32, i32, i32, i32, i32, i32, i32, i64, i32, i32, i64, i32, i32, i32, i32, i32, i32, i32, i64, ptr, ptr, i64, ptr, i32, %struct.aclInfo, i32, i64, i32, i32, i32, %struct.redisTLSContextConfig, ptr, ptr, ptr, ptr, ptr, i64, i32, ptr, i32, i32, i32, i64, i32, ptr }
%struct.connListener = type { [16 x i32], i32, ptr, i32, i32, ptr, ptr }
%struct.pause_event = type { i32, i64 }
%struct.malloc_stats = type { i64, i64, i64, i64, i64, i64, i64, i64, i64, i64, i64 }
%struct.anon = type { i64, i64, [16 x i64], i32 }
%struct.durationStats = type { i64, i64, i64 }
%struct.clientBufferLimitsConfig = type { i64, i64, i64 }
%struct.redisOpArray = type { ptr, i32, i32 }
%struct.replDataBuf = type { ptr, i64, i64, i64, i64 }
%struct.aclInfo = type { i64, i64, i64, i64 }
%struct.redisTLSContextConfig = type { ptr, ptr, ptr, ptr, ptr, ptr, ptr, ptr, ptr, ptr, ptr, ptr, i32, i32, i32, i32 }
%struct.client = type { i64, i64, ptr, i8, i8, i8, i8, i32, ptr, ptr, ptr, ptr, ptr, i64, i64, i32, ptr, i32, i32, ptr, i64, ptr, ptr, ptr, ptr, ptr, i32, i32, i64, ptr, i64, ptr, i64, i64, i64, i32, ptr, i64, i64, i32, i32, i32, i32, i64, i64, ptr, i64, i64, i64, i64, i64, i64, i64, i64, [41 x i8], i32, ptr, i32, i32, i64, %struct.multiState, %struct.blockingState, i64, ptr, ptr, ptr, ptr, ptr, ptr, ptr, ptr, ptr, ptr, ptr, ptr, ptr, ptr, i64, ptr, i64, i32, ptr, ptr, ptr, i64, %struct.listNode, i64, i64, i32, i64, ptr }
%struct.multiState = type { ptr, i32, i32, i32, i64, i32 }
%struct.blockingState = type { i32, i64, i32, ptr, i32, i32, i64, ptr, ptr, i64 }
%struct.listNode = type { ptr, ptr, ptr }
%struct.dict = type { ptr, [2 x ptr], [2 x i64], i64, i16, [2 x i8], i16, [0 x ptr] }

@.str.1 = private unnamed_addr constant [10 x i8] c"blocked.c\00", align 1
@server = external global %struct.redisServer, align 8
@.str.4 = private unnamed_addr constant [34 x i8] c"Unknown btype in unblockClient().\00", align 1

; Function Attrs: nounwind uwtable
define dso_local void @queueClientForReprocessing(ptr noundef %0) #0 {
  %2 = alloca ptr, align 8
  store ptr %0, ptr %2, align 8, !tbaa !5
  %3 = load ptr, ptr %2, align 8, !tbaa !5
  %4 = getelementptr inbounds nuw %struct.client, ptr %3, i32 0, i32 1
  %5 = load i64, ptr %4, align 8, !tbaa !37
  %6 = and i64 %5, 128
  %7 = icmp ne i64 %6, 0
  br i1 %7, label %16, label %8

8:                                                ; preds = %1
  %9 = load ptr, ptr %2, align 8, !tbaa !5
  %10 = getelementptr inbounds nuw %struct.client, ptr %9, i32 0, i32 1
  %11 = load i64, ptr %10, align 8, !tbaa !37
  %12 = or i64 %11, 128
  store i64 %12, ptr %10, align 8, !tbaa !37
  %13 = load ptr, ptr getelementptr inbounds nuw (%struct.redisServer, ptr @server, i32 0, i32 344), align 8, !tbaa !73
  %14 = load ptr, ptr %2, align 8, !tbaa !5
  %15 = call ptr @listAddNodeTail(ptr noundef %13, ptr noundef %14)
  br label %16

16:                                               ; preds = %8, %1
  ret void
}

; Function Attrs: nounwind uwtable
define internal void @unblockClientWaitingData(ptr noundef %0) #0 {
  %2 = alloca ptr, align 8
  %3 = alloca ptr, align 8
  %4 = alloca ptr, align 8
  %5 = alloca i32, align 4
  store ptr %0, ptr %2, align 8, !tbaa !5
  call void @llvm.lifetime.start.p0(i64 8, ptr %3) #8
  call void @llvm.lifetime.start.p0(i64 8, ptr %4) #8
  %6 = load ptr, ptr %2, align 8, !tbaa !5
  %7 = getelementptr inbounds nuw %struct.client, ptr %6, i32 0, i32 61
  %8 = getelementptr inbounds nuw %struct.blockingState, ptr %7, i32 0, i32 3
  %9 = load ptr, ptr %8, align 8, !tbaa !31
  %10 = getelementptr inbounds nuw %struct.dict, ptr %9, i32 0, i32 2
  %11 = getelementptr inbounds [2 x i64], ptr %10, i64 0, i64 0
  %12 = load i64, ptr %11, align 8, !tbaa !58
  %13 = load ptr, ptr %2, align 8, !tbaa !5
  %14 = getelementptr inbounds nuw %struct.client, ptr %13, i32 0, i32 61
  %15 = getelementptr inbounds nuw %struct.blockingState, ptr %14, i32 0, i32 3
  %16 = load ptr, ptr %15, align 8, !tbaa !31
  %17 = getelementptr inbounds nuw %struct.dict, ptr %16, i32 0, i32 2
  %18 = getelementptr inbounds [2 x i64], ptr %17, i64 0, i64 1
  %19 = load i64, ptr %18, align 8, !tbaa !58
  %20 = add i64 %12, %19
  %21 = icmp eq i64 %20, 0
  br i1 %21, label %22, label %23

22:                                               ; preds = %1
  store i32 1, ptr %5, align 4
  br label %42

23:                                               ; preds = %1
  %24 = load ptr, ptr %2, align 8, !tbaa !5
  %25 = getelementptr inbounds nuw %struct.client, ptr %24, i32 0, i32 61
  %26 = getelementptr inbounds nuw %struct.blockingState, ptr %25, i32 0, i32 3
  %27 = load ptr, ptr %26, align 8, !tbaa !31
  %28 = call ptr @dictGetIterator(ptr noundef %27)
  store ptr %28, ptr %4, align 8, !tbaa !83
  br label %29

29:                                               ; preds = %33, %23
  %30 = load ptr, ptr %4, align 8, !tbaa !83
  %31 = call ptr @dictNext(ptr noundef %30)
  store ptr %31, ptr %3, align 8, !tbaa !85
  %32 = icmp ne ptr %31, null
  br i1 %32, label %33, label %36

33:                                               ; preds = %29
  %34 = load ptr, ptr %2, align 8, !tbaa !5
  %35 = load ptr, ptr %3, align 8, !tbaa !85
  call void @releaseBlockedEntry(ptr noundef %34, ptr noundef %35, i32 noundef 0)
  br label %29, !llvm.loop !86

36:                                               ; preds = %29
  %37 = load ptr, ptr %4, align 8, !tbaa !83
  call void @dictReleaseIterator(ptr noundef %37)
  %38 = load ptr, ptr %2, align 8, !tbaa !5
  %39 = getelementptr inbounds nuw %struct.client, ptr %38, i32 0, i32 61
  %40 = getelementptr inbounds nuw %struct.blockingState, ptr %39, i32 0, i32 3
  %41 = load ptr, ptr %40, align 8, !tbaa !31
  call void @dictEmpty(ptr noundef %41, ptr noundef null)
  store i32 0, ptr %5, align 4
  br label %42

42:                                               ; preds = %36, %22
  call void @llvm.lifetime.end.p0(i64 8, ptr %4) #8
  call void @llvm.lifetime.end.p0(i64 8, ptr %3) #8
  %43 = load i32, ptr %5, align 4
  switch i32 %43, label %45 [
    i32 0, label %44
    i32 1, label %44
  ]

44:                                               ; preds = %42, %42
  ret void

45:                                               ; preds = %42
  unreachable
}

; Function Attrs: nounwind uwtable
define dso_local void @unblockClient(ptr noundef %0, i32 noundef %1) #0 {
  %3 = alloca ptr, align 8
  %4 = alloca i32, align 4
  store ptr %0, ptr %3, align 8, !tbaa !5
  store i32 %1, ptr %4, align 4, !tbaa !36
  %5 = load ptr, ptr %3, align 8, !tbaa !5
  %6 = getelementptr inbounds nuw %struct.client, ptr %5, i32 0, i32 61
  %7 = getelementptr inbounds nuw %struct.blockingState, ptr %6, i32 0, i32 0
  %8 = load i32, ptr %7, align 8, !tbaa !10
  %9 = icmp eq i32 %8, 1
  br i1 %9, label %22, label %10

10:                                               ; preds = %2
  %11 = load ptr, ptr %3, align 8, !tbaa !5
  %12 = getelementptr inbounds nuw %struct.client, ptr %11, i32 0, i32 61
  %13 = getelementptr inbounds nuw %struct.blockingState, ptr %12, i32 0, i32 0
  %14 = load i32, ptr %13, align 8, !tbaa !10
  %15 = icmp eq i32 %14, 6
  br i1 %15, label %22, label %16

16:                                               ; preds = %10
  %17 = load ptr, ptr %3, align 8, !tbaa !5
  %18 = getelementptr inbounds nuw %struct.client, ptr %17, i32 0, i32 61
  %19 = getelementptr inbounds nuw %struct.blockingState, ptr %18, i32 0, i32 0
  %20 = load i32, ptr %19, align 8, !tbaa !10
  %21 = icmp eq i32 %20, 5
  br i1 %21, label %22, label %24

22:                                               ; preds = %16, %10, %2
  %23 = load ptr, ptr %3, align 8, !tbaa !5
  call void @unblockClientWaitingData(ptr noundef %23)
  br label %85

24:                                               ; preds = %16
  %25 = load ptr, ptr %3, align 8, !tbaa !5
  %26 = getelementptr inbounds nuw %struct.client, ptr %25, i32 0, i32 61
  %27 = getelementptr inbounds nuw %struct.blockingState, ptr %26, i32 0, i32 0
  %28 = load i32, ptr %27, align 8, !tbaa !10
  %29 = icmp eq i32 %28, 2
  br i1 %29, label %36, label %30

30:                                               ; preds = %24
  %31 = load ptr, ptr %3, align 8, !tbaa !5
  %32 = getelementptr inbounds nuw %struct.client, ptr %31, i32 0, i32 61
  %33 = getelementptr inbounds nuw %struct.blockingState, ptr %32, i32 0, i32 0
  %34 = load i32, ptr %33, align 8, !tbaa !10
  %35 = icmp eq i32 %34, 3
  br i1 %35, label %36, label %38

36:                                               ; preds = %30, %24
  %37 = load ptr, ptr %3, align 8, !tbaa !5
  call void @unblockClientWaitingReplicas(ptr noundef %37)
  br label %84

38:                                               ; preds = %30
  %39 = load ptr, ptr %3, align 8, !tbaa !5
  %40 = getelementptr inbounds nuw %struct.client, ptr %39, i32 0, i32 61
  %41 = getelementptr inbounds nuw %struct.blockingState, ptr %40, i32 0, i32 0
  %42 = load i32, ptr %41, align 8, !tbaa !10
  %43 = icmp eq i32 %42, 4
  br i1 %43, label %44, label %52

44:                                               ; preds = %38
  %45 = load ptr, ptr %3, align 8, !tbaa !5
  %46 = call i32 @moduleClientIsBlockedOnKeys(ptr noundef %45)
  %47 = icmp ne i32 %46, 0
  br i1 %47, label %48, label %50

48:                                               ; preds = %44
  %49 = load ptr, ptr %3, align 8, !tbaa !5
  call void @unblockClientWaitingData(ptr noundef %49)
  br label %50

50:                                               ; preds = %48, %44
  %51 = load ptr, ptr %3, align 8, !tbaa !5
  call void @unblockClientFromModule(ptr noundef %51)
  br label %83

52:                                               ; preds = %38
  %53 = load ptr, ptr %3, align 8, !tbaa !5
  %54 = getelementptr inbounds nuw %struct.client, ptr %53, i32 0, i32 61
  %55 = getelementptr inbounds nuw %struct.blockingState, ptr %54, i32 0, i32 0
  %56 = load i32, ptr %55, align 8, !tbaa !10
  %57 = icmp eq i32 %56, 7
  br i1 %57, label %58, label %65

58:                                               ; preds = %52
  %59 = load ptr, ptr getelementptr inbounds nuw (%struct.redisServer, ptr @server, i32 0, i32 70), align 8, !tbaa !81
  %60 = load ptr, ptr %3, align 8, !tbaa !5
  %61 = getelementptr inbounds nuw %struct.client, ptr %60, i32 0, i32 71
  %62 = load ptr, ptr %61, align 8, !tbaa !82
  call void @listDelNode(ptr noundef %59, ptr noundef %62)
  %63 = load ptr, ptr %3, align 8, !tbaa !5
  %64 = getelementptr inbounds nuw %struct.client, ptr %63, i32 0, i32 71
  store ptr null, ptr %64, align 8, !tbaa !82
  br label %82

65:                                               ; preds = %52
  %66 = load ptr, ptr %3, align 8, !tbaa !5
  %67 = getelementptr inbounds nuw %struct.client, ptr %66, i32 0, i32 61
  %68 = getelementptr inbounds nuw %struct.blockingState, ptr %67, i32 0, i32 0
  %69 = load i32, ptr %68, align 8, !tbaa !10
  %70 = icmp eq i32 %69, 8
  br i1 %70, label %71, label %72

71:                                               ; preds = %65
  br label %81

72:                                               ; preds = %65
  %73 = load ptr, ptr %3, align 8, !tbaa !5
  %74 = getelementptr inbounds nuw %struct.client, ptr %73, i32 0, i32 61
  %75 = getelementptr inbounds nuw %struct.blockingState, ptr %74, i32 0, i32 0
  %76 = load i32, ptr %75, align 8, !tbaa !10
  %77 = icmp eq i32 %76, 9
  br i1 %77, label %78, label %79

78:                                               ; preds = %72
  br label %80

79:                                               ; preds = %72
  call void (ptr, i32, ptr, ...) @_serverPanic(ptr noundef @.str.1, i32 noundef 182, ptr noundef @.str.4)
  call void @abort() #7
  unreachable

80:                                               ; preds = %78
  br label %81

81:                                               ; preds = %80, %71
  br label %82

82:                                               ; preds = %81, %58
  br label %83

83:                                               ; preds = %82, %50
  br label %84

84:                                               ; preds = %83, %36
  br label %85

85:                                               ; preds = %84, %22
  %86 = load ptr, ptr %3, align 8, !tbaa !5
  %87 = getelementptr inbounds nuw %struct.client, ptr %86, i32 0, i32 1
  %88 = load i64, ptr %87, align 8, !tbaa !37
  %89 = and i64 %88, 1073741824
  %90 = icmp ne i64 %89, 0
  br i1 %90, label %102, label %91

91:                                               ; preds = %85
  %92 = load ptr, ptr %3, align 8, !tbaa !5
  %93 = getelementptr inbounds nuw %struct.client, ptr %92, i32 0, i32 61
  %94 = getelementptr inbounds nuw %struct.blockingState, ptr %93, i32 0, i32 0
  %95 = load i32, ptr %94, align 8, !tbaa !10
  %96 = icmp ne i32 %95, 8
  br i1 %96, label %97, label %102

97:                                               ; preds = %91
  %98 = load ptr, ptr %3, align 8, !tbaa !5
  call void @freeClientOriginalArgv(ptr noundef %98)
  %99 = load ptr, ptr %3, align 8, !tbaa !5
  %100 = call i64 @reqresAppendResponse(ptr noundef %99)
  %101 = load ptr, ptr %3, align 8, !tbaa !5
  call void @resetClient(ptr noundef %101)
  br label %102

102:                                              ; preds = %97, %91, %85
  %103 = load ptr, ptr %3, align 8, !tbaa !5
  %104 = getelementptr inbounds nuw %struct.client, ptr %103, i32 0, i32 1
  %105 = load i64, ptr %104, align 8, !tbaa !37
  %106 = and i64 %105, 134217728
  %107 = icmp ne i64 %106, 0
  br i1 %107, label %111, label %108

108:                                              ; preds = %102
  %109 = load i32, ptr getelementptr inbounds nuw (%struct.redisServer, ptr @server, i32 0, i32 342), align 4, !tbaa !38
  %110 = add i32 %109, -1
  store i32 %110, ptr getelementptr inbounds nuw (%struct.redisServer, ptr @server, i32 0, i32 342), align 4, !tbaa !38
  br label %111

111:                                              ; preds = %108, %102
  %112 = load ptr, ptr %3, align 8, !tbaa !5
  %113 = getelementptr inbounds nuw %struct.client, ptr %112, i32 0, i32 61
  %114 = getelementptr inbounds nuw %struct.blockingState, ptr %113, i32 0, i32 0
  %115 = load i32, ptr %114, align 8, !tbaa !10
  %116 = zext i32 %115 to i64
  %117 = getelementptr inbounds nuw [10 x i32], ptr getelementptr inbounds nuw (%struct.redisServer, ptr @server, i32 0, i32 343), i64 0, i64 %116
  %118 = load i32, ptr %117, align 4, !tbaa !36
  %119 = add i32 %118, -1
  store i32 %119, ptr %117, align 4, !tbaa !36
  %120 = load ptr, ptr %3, align 8, !tbaa !5
  %121 = getelementptr inbounds nuw %struct.client, ptr %120, i32 0, i32 1
  %122 = load i64, ptr %121, align 8, !tbaa !37
  %123 = and i64 %122, -17
  store i64 %123, ptr %121, align 8, !tbaa !37
  %124 = load ptr, ptr %3, align 8, !tbaa !5
  %125 = getelementptr inbounds nuw %struct.client, ptr %124, i32 0, i32 61
  %126 = getelementptr inbounds nuw %struct.blockingState, ptr %125, i32 0, i32 0
  store i32 0, ptr %126, align 8, !tbaa !10
  %127 = load ptr, ptr %3, align 8, !tbaa !5
  %128 = getelementptr inbounds nuw %struct.client, ptr %127, i32 0, i32 61
  %129 = getelementptr inbounds nuw %struct.blockingState, ptr %128, i32 0, i32 2
  store i32 0, ptr %129, align 8, !tbaa !34
  %130 = load ptr, ptr %3, align 8, !tbaa !5
  call void @removeClientFromTimeoutTable(ptr noundef %130)
  %131 = load i32, ptr %4, align 4, !tbaa !36
  %132 = icmp ne i32 %131, 0
  br i1 %132, label %133, label %135

133:                                              ; preds = %111
  %134 = load ptr, ptr %3, align 8, !tbaa !5
  call void @queueClientForReprocessing(ptr noundef %134)
  br label %135

135:                                              ; preds = %133, %111
  ret void
}