; Function Attrs: nounwind uwtable
define dso_local void @unblockClient(ptr noundef %0, i32 noundef %1) local_unnamed_addr #0 {
  %3 = getelementptr inbounds nuw i8, ptr %0, i64 480
  %4 = load i32, ptr %3, align 8, !tbaa !5
  switch i32 %4, label %42 [
    i32 1, label %5
    i32 6, label %5
    i32 5, label %5
    i32 2, label %20
    i32 3, label %20
    i32 4, label %21
    i32 7, label %38
    i32 8, label %unblockClientWaitingData.exit
    i32 9, label %unblockClientWaitingData.exit
  ]

5:                                                ; preds = %2, %2, %2
  %6 = getelementptr inbounds nuw i8, ptr %0, i64 504
  %7 = load ptr, ptr %6, align 8, !tbaa !29
  %8 = getelementptr inbounds nuw i8, ptr %7, i64 24
  %9 = load i64, ptr %8, align 8, !tbaa !78
  %10 = getelementptr inbounds nuw i8, ptr %7, i64 32
  %11 = load i64, ptr %10, align 8, !tbaa !78
  %12 = sub i64 0, %11
  %13 = icmp eq i64 %9, %12
  br i1 %13, label %unblockClientWaitingData.exit, label %14

14:                                               ; preds = %5
  %15 = tail call ptr @dictGetIterator(ptr noundef nonnull %7) #5
  %16 = tail call ptr @dictNext(ptr noundef %15) #5
  %.not8.i = icmp eq ptr %16, null
  br i1 %.not8.i, label %._crit_edge.i, label %.lr.ph.i

.lr.ph.i:                                         ; preds = %14, %.lr.ph.i
  %17 = phi ptr [ %18, %.lr.ph.i ], [ %16, %14 ]
  tail call fastcc void @releaseBlockedEntry(ptr noundef %0, ptr noundef nonnull %17, i32 noundef 0)
  %18 = tail call ptr @dictNext(ptr noundef %15) #5
  %.not.i = icmp eq ptr %18, null
  br i1 %.not.i, label %._crit_edge.i, label %.lr.ph.i, !llvm.loop !79

._crit_edge.i:                                    ; preds = %.lr.ph.i, %14
  tail call void @dictReleaseIterator(ptr noundef %15) #5
  %19 = load ptr, ptr %6, align 8, !tbaa !29
  tail call void @dictEmpty(ptr noundef %19, ptr noundef null) #5
  br label %unblockClientWaitingData.exit

20:                                               ; preds = %2, %2
  tail call void @unblockClientWaitingReplicas(ptr noundef nonnull %0) #5
  br label %unblockClientWaitingData.exit

21:                                               ; preds = %2
  %22 = tail call i32 @moduleClientIsBlockedOnKeys(ptr noundef nonnull %0) #5
  %.not = icmp eq i32 %22, 0
  br i1 %.not, label %unblockClientWaitingData.exit36, label %23

23:                                               ; preds = %21
  %24 = getelementptr inbounds nuw i8, ptr %0, i64 504
  %25 = load ptr, ptr %24, align 8, !tbaa !29
  %26 = getelementptr inbounds nuw i8, ptr %25, i64 24
  %27 = load i64, ptr %26, align 8, !tbaa !78
  %28 = getelementptr inbounds nuw i8, ptr %25, i64 32
  %29 = load i64, ptr %28, align 8, !tbaa !78
  %30 = sub i64 0, %29
  %31 = icmp eq i64 %27, %30
  br i1 %31, label %unblockClientWaitingData.exit36, label %32

32:                                               ; preds = %23
  %33 = tail call ptr @dictGetIterator(ptr noundef nonnull %25) #5
  %34 = tail call ptr @dictNext(ptr noundef %33) #5
  %.not8.i32 = icmp eq ptr %34, null
  br i1 %.not8.i32, label %._crit_edge.i35, label %.lr.ph.i33

.lr.ph.i33:                                       ; preds = %32, %.lr.ph.i33
  %35 = phi ptr [ %36, %.lr.ph.i33 ], [ %34, %32 ]
  tail call fastcc void @releaseBlockedEntry(ptr noundef nonnull %0, ptr noundef nonnull %35, i32 noundef 0)
  %36 = tail call ptr @dictNext(ptr noundef %33) #5
  %.not.i34 = icmp eq ptr %36, null
  br i1 %.not.i34, label %._crit_edge.i35, label %.lr.ph.i33, !llvm.loop !79

._crit_edge.i35:                                  ; preds = %.lr.ph.i33, %32
  tail call void @dictReleaseIterator(ptr noundef %33) #5
  %37 = load ptr, ptr %24, align 8, !tbaa !29
  tail call void @dictEmpty(ptr noundef %37, ptr noundef null) #5
  br label %unblockClientWaitingData.exit36

unblockClientWaitingData.exit36:                  ; preds = %._crit_edge.i35, %23, %21
  tail call void @unblockClientFromModule(ptr noundef nonnull %0) #5
  br label %unblockClientWaitingData.exit

38:                                               ; preds = %2
  %39 = load ptr, ptr getelementptr inbounds nuw (i8, ptr @server, i64 1536), align 8, !tbaa !80
  %40 = getelementptr inbounds nuw i8, ptr %0, i64 624
  %41 = load ptr, ptr %40, align 8, !tbaa !81
  tail call void @listDelNode(ptr noundef %39, ptr noundef %41) #5
  store ptr null, ptr %40, align 8, !tbaa !81
  br label %unblockClientWaitingData.exit

42:                                               ; preds = %2
  tail call void (ptr, i32, ptr, ...) @_serverPanic(ptr noundef nonnull @.str.1, i32 noundef 182, ptr noundef nonnull @.str.4) #5
  tail call void @abort() #6
  unreachable

unblockClientWaitingData.exit:                    ; preds = %._crit_edge.i, %5, %2, %2, %20, %38, %unblockClientWaitingData.exit36
  %43 = getelementptr inbounds nuw i8, ptr %0, i64 8
  %44 = load i64, ptr %43, align 8, !tbaa !34
  %45 = and i64 %44, 1073741824
  %.not28 = icmp eq i64 %45, 0
  br i1 %.not28, label %46, label %50

46:                                               ; preds = %unblockClientWaitingData.exit
  %47 = load i32, ptr %3, align 8, !tbaa !5
  %.not29 = icmp eq i32 %47, 8
  br i1 %.not29, label %50, label %48

48:                                               ; preds = %46
  tail call void @freeClientOriginalArgv(ptr noundef nonnull %0) #5
  %49 = tail call i64 @reqresAppendResponse(ptr noundef nonnull %0) #5
  tail call void @resetClient(ptr noundef nonnull %0) #5
  %.pre = load i64, ptr %43, align 8, !tbaa !34
  br label %50

50:                                               ; preds = %48, %46, %unblockClientWaitingData.exit
  %51 = phi i64 [ %.pre, %48 ], [ %44, %46 ], [ %44, %unblockClientWaitingData.exit ]
  %52 = and i64 %51, 134217728
  %.not30 = icmp eq i64 %52, 0
  br i1 %.not30, label %53, label %56

53:                                               ; preds = %50
  %54 = load i32, ptr getelementptr inbounds nuw (i8, ptr @server, i64 7588), align 4, !tbaa !35
  %55 = add i32 %54, -1
  store i32 %55, ptr getelementptr inbounds nuw (i8, ptr @server, i64 7588), align 4, !tbaa !35
  br label %56

56:                                               ; preds = %53, %50
  %57 = load i32, ptr %3, align 8, !tbaa !5
  %58 = zext i32 %57 to i64
  %59 = getelementptr inbounds nuw [10 x i32], ptr getelementptr inbounds nuw (i8, ptr @server, i64 7592), i64 0, i64 %58
  %60 = load i32, ptr %59, align 4, !tbaa !56
  %61 = add i32 %60, -1
  store i32 %61, ptr %59, align 4, !tbaa !56
  %62 = and i64 %51, -17
  store i64 %62, ptr %43, align 8, !tbaa !34
  store i32 0, ptr %3, align 8, !tbaa !5
  %63 = getelementptr inbounds nuw i8, ptr %0, i64 496
  store i32 0, ptr %63, align 8, !tbaa !32
  tail call void @removeClientFromTimeoutTable(ptr noundef nonnull %0) #5
  %.not31 = icmp eq i32 %1, 0
  br i1 %.not31, label %queueClientForReprocessing.exit, label %64

64:                                               ; preds = %56
  %65 = load i64, ptr %43, align 8, !tbaa !34
  %66 = and i64 %65, 128
  %.not.i37 = icmp eq i64 %66, 0
  br i1 %.not.i37, label %67, label %queueClientForReprocessing.exit

67:                                               ; preds = %64
  %68 = or disjoint i64 %65, 128
  store i64 %68, ptr %43, align 8, !tbaa !34
  %69 = load ptr, ptr getelementptr inbounds nuw (i8, ptr @server, i64 7632), align 8, !tbaa !70
  %70 = tail call ptr @listAddNodeTail(ptr noundef %69, ptr noundef nonnull %0) #5
  br label %queueClientForReprocessing.exit

queueClientForReprocessing.exit:                  ; preds = %67, %64, %56
  ret void
}